target datalayout = "e-m:e-p270:32:32-p271:32:32-p272:64:64-i64:64-i128:128-f80:128-n8:16:32:64-S128"
target triple = "x86_64-pc-linux-gnu"

; Function Attrs: nounwind uwtable
define void @ff_eval_coefs(ptr noundef %0, ptr noundef %1) #0 {
  %3 = alloca ptr, align 8
  %4 = alloca ptr, align 8
  %5 = alloca [10 x i32], align 16
  %6 = alloca ptr, align 8
  %7 = alloca ptr, align 8
  %8 = alloca i32, align 4
  %9 = alloca i32, align 4
  %10 = alloca ptr, align 8
  store ptr %0, ptr %3, align 8, !tbaa !11
  store ptr %1, ptr %4, align 8, !tbaa !11
  call void @llvm.lifetime.start.p0(i64 40, ptr %5) #7
  call void @llvm.lifetime.start.p0(i64 8, ptr %6) #7
  %11 = getelementptr inbounds [10 x i32], ptr %5, i64 0, i64 0
  store ptr %11, ptr %6, align 8, !tbaa !11
  call void @llvm.lifetime.start.p0(i64 8, ptr %7) #7
  %12 = load ptr, ptr %3, align 8, !tbaa !11
  store ptr %12, ptr %7, align 8, !tbaa !11
  call void @llvm.lifetime.start.p0(i64 4, ptr %8) #7
  call void @llvm.lifetime.start.p0(i64 4, ptr %9) #7
  store i32 0, ptr %8, align 4, !tbaa !9
  br label %13

13:                                               ; preds = %67, %2
  %14 = load i32, ptr %8, align 4, !tbaa !9
  %15 = icmp slt i32 %14, 10
  br i1 %15, label %16, label %70

16:                                               ; preds = %13
  %17 = load ptr, ptr %4, align 8, !tbaa !11
  %18 = load i32, ptr %8, align 4, !tbaa !9
  %19 = sext i32 %18 to i64
  %20 = getelementptr inbounds i32, ptr %17, i64 %19
  %21 = load i32, ptr %20, align 4, !tbaa !9
  %22 = mul nsw i32 %21, 16
  %23 = load ptr, ptr %6, align 8, !tbaa !11
  %24 = load i32, ptr %8, align 4, !tbaa !9
  %25 = sext i32 %24 to i64
  %26 = getelementptr inbounds i32, ptr %23, i64 %25
  store i32 %22, ptr %26, align 4, !tbaa !9
  store i32 0, ptr %9, align 4, !tbaa !9
  br label %27

27:                                               ; preds = %57, %16
  %28 = load i32, ptr %9, align 4, !tbaa !9
  %29 = load i32, ptr %8, align 4, !tbaa !9
  %30 = icmp slt i32 %28, %29
  br i1 %30, label %31, label %60

31:                                               ; preds = %27
  %32 = load ptr, ptr %4, align 8, !tbaa !11
  %33 = load i32, ptr %8, align 4, !tbaa !9
  %34 = sext i32 %33 to i64
  %35 = getelementptr inbounds i32, ptr %32, i64 %34
  %36 = load i32, ptr %35, align 4, !tbaa !9
  %37 = load ptr, ptr %7, align 8, !tbaa !11
  %38 = load i32, ptr %8, align 4, !tbaa !9
  %39 = load i32, ptr %9, align 4, !tbaa !9
  %40 = sub nsw i32 %38, %39
  %41 = sub nsw i32 %40, 1
  %42 = sext i32 %41 to i64
  %43 = getelementptr inbounds i32, ptr %37, i64 %42
  %44 = load i32, ptr %43, align 4, !tbaa !9
  %45 = mul i32 %36, %44
  %46 = ashr i32 %45, 12
  %47 = load ptr, ptr %7, align 8, !tbaa !11
  %48 = load i32, ptr %9, align 4, !tbaa !9
  %49 = sext i32 %48 to i64
  %50 = getelementptr inbounds i32, ptr %47, i64 %49
  %51 = load i32, ptr %50, align 4, !tbaa !9
  %52 = add nsw i32 %46, %51
  %53 = load ptr, ptr %6, align 8, !tbaa !11
  %54 = load i32, ptr %9, align 4, !tbaa !9
  %55 = sext i32 %54 to i64
  %56 = getelementptr inbounds i32, ptr %53, i64 %55
  store i32 %52, ptr %56, align 4, !tbaa !9
  br label %57

57:                                               ; preds = %31
  %58 = load i32, ptr %9, align 4, !tbaa !9
  %59 = add nsw i32 %58, 1
  store i32 %59, ptr %9, align 4, !tbaa !9
  br label %27, !llvm.loop !21

60:                                               ; preds = %27
  br label %61

61:                                               ; preds = %60
  call void @llvm.lifetime.start.p0(i64 8, ptr %10) #7
  %62 = load ptr, ptr %7, align 8, !tbaa !11
  store ptr %62, ptr %10, align 8, !tbaa !11
  %63 = load ptr, ptr %6, align 8, !tbaa !11
  store ptr %63, ptr %7, align 8, !tbaa !11
  %64 = load ptr, ptr %10, align 8, !tbaa !11
  store ptr %64, ptr %6, align 8, !tbaa !11
  call void @llvm.lifetime.end.p0(i64 8, ptr %10) #7
  br label %65

65:                                               ; preds = %61
  br label %66

66:                                               ; preds = %65
  br label %67

67:                                               ; preds = %66
  %68 = load i32, ptr %8, align 4, !tbaa !9
  %69 = add nsw i32 %68, 1
  store i32 %69, ptr %8, align 4, !tbaa !9
  br label %13, !llvm.loop !22

70:                                               ; preds = %13
  store i32 0, ptr %8, align 4, !tbaa !9
  br label %71

71:                                               ; preds = %81, %70
  %72 = load i32, ptr %8, align 4, !tbaa !9
  %73 = icmp slt i32 %72, 10
  br i1 %73, label %74, label %84

74:                                               ; preds = %71
  %75 = load ptr, ptr %3, align 8, !tbaa !11
  %76 = load i32, ptr %8, align 4, !tbaa !9
  %77 = sext i32 %76 to i64
  %78 = getelementptr inbounds i32, ptr %75, i64 %77
  %79 = load i32, ptr %78, align 4, !tbaa !9
  %80 = ashr i32 %79, 4
  store i32 %80, ptr %78, align 4, !tbaa !9
  br label %81

81:                                               ; preds = %74
  %82 = load i32, ptr %8, align 4, !tbaa !9
  %83 = add nsw i32 %82, 1
  store i32 %83, ptr %8, align 4, !tbaa !9
  br label %71, !llvm.loop !23

84:                                               ; preds = %71
  call void @llvm.lifetime.end.p0(i64 4, ptr %9) #7
  call void @llvm.lifetime.end.p0(i64 4, ptr %8) #7
  call void @llvm.lifetime.end.p0(i64 8, ptr %7) #7
  call void @llvm.lifetime.end.p0(i64 8, ptr %6) #7
  call void @llvm.lifetime.end.p0(i64 40, ptr %5) #7
  ret void
}