; Function Attrs: nofree norecurse nosync nounwind memory(readwrite, inaccessiblemem: none) uwtable
define void @ff_eval_coefs(ptr noundef captures(none) %0, ptr noundef readonly captures(none) %1) local_unnamed_addr #5 {
  %3 = alloca [10 x i32], align 16
  call void @llvm.lifetime.start.p0(i64 40, ptr nonnull %3) #12
  br label %4

4:                                                ; preds = %2, %._crit_edge
  %indvars.iv34 = phi i64 [ 0, %2 ], [ %indvars.iv.next35, %._crit_edge ]
  %.031 = phi ptr [ %3, %2 ], [ %.02729, %._crit_edge ]
  %.02729 = phi ptr [ %0, %2 ], [ %.031, %._crit_edge ]
  %5 = getelementptr inbounds nuw i32, ptr %1, i64 %indvars.iv34
  %6 = load i32, ptr %5, align 4, !tbaa !8
  %7 = shl nsw i32 %6, 4
  %8 = getelementptr inbounds nuw i32, ptr %.031, i64 %indvars.iv34
  store i32 %7, ptr %8, align 4, !tbaa !8
  %.not = icmp eq i64 %indvars.iv34, 0
  br i1 %.not, label %._crit_edge, label %.lr.ph.preheader

.lr.ph.preheader:                                 ; preds = %4
  %9 = getelementptr i32, ptr %.02729, i64 %indvars.iv34
  br label %.lr.ph

.lr.ph:                                           ; preds = %.lr.ph.preheader, %.lr.ph
  %indvars.iv = phi i64 [ 0, %.lr.ph.preheader ], [ %indvars.iv.next, %.lr.ph ]
  %10 = load i32, ptr %5, align 4, !tbaa !8
  %11 = xor i64 %indvars.iv, -1
  %12 = getelementptr i32, ptr %9, i64 %11
  %13 = load i32, ptr %12, align 4, !tbaa !8
  %14 = mul i32 %13, %10
  %15 = ashr i32 %14, 12
  %16 = getelementptr inbounds nuw i32, ptr %.02729, i64 %indvars.iv
  %17 = load i32, ptr %16, align 4, !tbaa !8
  %18 = add nsw i32 %15, %17
  %19 = getelementptr inbounds nuw i32, ptr %.031, i64 %indvars.iv
  store i32 %18, ptr %19, align 4, !tbaa !8
  %indvars.iv.next = add nuw nsw i64 %indvars.iv, 1
  %exitcond.not = icmp eq i64 %indvars.iv.next, %indvars.iv34
  br i1 %exitcond.not, label %._crit_edge, label %.lr.ph, !llvm.loop !14

._crit_edge:                                      ; preds = %.lr.ph, %4
  %indvars.iv.next35 = add nuw nsw i64 %indvars.iv34, 1
  %exitcond37.not = icmp eq i64 %indvars.iv.next35, 10
  br i1 %exitcond37.not, label %.preheader, label %4, !llvm.loop !15

.preheader:                                       ; preds = %._crit_edge, %.preheader
  %indvars.iv38 = phi i64 [ %indvars.iv.next39, %.preheader ], [ 0, %._crit_edge ]
  %20 = getelementptr inbounds nuw i32, ptr %0, i64 %indvars.iv38
  %21 = load i32, ptr %20, align 4, !tbaa !8
  %22 = ashr i32 %21, 4
  store i32 %22, ptr %20, align 4, !tbaa !8
  %indvars.iv.next39 = add nuw nsw i64 %indvars.iv38, 1
  %exitcond41.not = icmp eq i64 %indvars.iv.next39, 10
  br i1 %exitcond41.not, label %23, label %.preheader, !llvm.loop !16

23:                                               ; preds = %.preheader
  call void @llvm.lifetime.end.p0(i64 40, ptr nonnull %3) #12
  ret void
}